; Function Attrs: nofree norecurse nosync nounwind memory(readwrite, inaccessiblemem: none) uwtable
define void @Fra_ImpCompactArray(ptr noundef captures(none) %0) local_unnamed_addr #10 {
  %2 = getelementptr i8, ptr %0, i64 4
  %.val14 = load i32, ptr %2, align 4, !tbaa !38
  %3 = icmp sgt i32 %.val14, 0
  br i1 %3, label %.lr.ph, label %.critedge

.lr.ph:                                           ; preds = %1
  %4 = getelementptr i8, ptr %0, i64 8
  %.val12 = load ptr, ptr %4, align 8, !tbaa !43
  br label %5

5:                                                ; preds = %.lr.ph, %12
  %.val18 = phi i32 [ %.val14, %.lr.ph ], [ %.val, %12 ]
  %indvars.iv = phi i64 [ 0, %.lr.ph ], [ %indvars.iv.next, %12 ]
  %.01015 = phi i32 [ 0, %.lr.ph ], [ %.1, %12 ]
  %6 = getelementptr inbounds nuw i32, ptr %.val12, i64 %indvars.iv
  %7 = load i32, ptr %6, align 4, !tbaa !29
  %.not = icmp eq i32 %7, 0
  br i1 %.not, label %12, label %8

8:                                                ; preds = %5
  %9 = add nsw i32 %.01015, 1
  %10 = sext i32 %.01015 to i64
  %11 = getelementptr inbounds i32, ptr %.val12, i64 %10
  store i32 %7, ptr %11, align 4, !tbaa !29
  %.val.pre = load i32, ptr %2, align 4, !tbaa !38
  br label %12

12:                                               ; preds = %5, %8
  %.val = phi i32 [ %.val.pre, %8 ], [ %.val18, %5 ]
  %.1 = phi i32 [ %9, %8 ], [ %.01015, %5 ]
  %indvars.iv.next = add nuw nsw i64 %indvars.iv, 1
  %13 = sext i32 %.val to i64
  %14 = icmp slt i64 %indvars.iv.next, %13
  br i1 %14, label %5, label %.critedge, !llvm.loop !89

.critedge:                                        ; preds = %12, %1
  %.010.lcssa = phi i32 [ 0, %1 ], [ %.1, %12 ]
  store i32 %.010.lcssa, ptr %2, align 4, !tbaa !38
  ret void
}